target datalayout = "e-m:e-p270:32:32-p271:32:32-p272:64:64-i64:64-i128:128-f80:128-n8:16:32:64-S128"
target triple = "x86_64-pc-linux-gnu"

%struct.TupleTableSlotOps = type { i64, ptr, ptr, ptr, ptr, ptr, ptr, ptr, ptr, ptr, ptr, ptr, ptr }
%struct.dlist_node = type { ptr, ptr }
%struct.RI_ConstraintInfo = type { i32, i8, i32, i32, i32, %struct.nameData, i32, i32, i8, i8, i32, [32 x i16], i8, i8, i32, [32 x i16], [32 x i16], [32 x i32], [32 x i32], [32 x i32], i32, i32, i32, %struct.dlist_node }
%struct.nameData = type { [64 x i8] }
%struct.RelationData = type { %struct.RelFileLocator, ptr, i32, i32, i8, i8, i8, i8, i8, i32, i32, i32, i32, ptr, ptr, i32, %struct.LockInfoData, ptr, ptr, ptr, ptr, ptr, i8, ptr, ptr, ptr, ptr, ptr, ptr, i32, ptr, i8, ptr, ptr, i32, i8, i32, ptr, i8, ptr, ptr, ptr, ptr, ptr, ptr, ptr, i32, ptr, ptr, ptr, ptr, ptr, ptr, ptr, ptr, ptr, ptr, ptr, ptr, ptr, ptr, ptr, ptr, ptr, ptr, ptr, i32, i8, ptr }
%struct.RelFileLocator = type { i32, i32, i32 }
%struct.LockInfoData = type { %struct.LockRelId }
%struct.LockRelId = type { i32, i32 }
%struct.TupleTableSlot = type { i32, i16, i16, ptr, ptr, ptr, ptr, ptr, %struct.ItemPointerData, i32 }
%struct.ItemPointerData = type { %struct.BlockIdData, i16 }
%struct.BlockIdData = type { i16, i16 }

; Function Attrs: inlinehint nounwind uwtable
define internal void @slot_getsomeattrs(ptr noundef %0, i32 noundef %1) #4 {
  %3 = alloca ptr, align 8
  %4 = alloca i32, align 4
  store ptr %0, ptr %3, align 8
  store i32 %1, ptr %4, align 4
  %5 = load ptr, ptr %3, align 8
  %6 = getelementptr inbounds nuw %struct.TupleTableSlot, ptr %5, i32 0, i32 2
  %7 = load i16, ptr %6, align 2
  %8 = sext i16 %7 to i32
  %9 = load i32, ptr %4, align 4
  %10 = icmp slt i32 %8, %9
  br i1 %10, label %11, label %14

11:                                               ; preds = %2
  %12 = load ptr, ptr %3, align 8
  %13 = load i32, ptr %4, align 4
  call void @slot_getsomeattrs_int(ptr noundef %12, i32 noundef %13)
  br label %14

14:                                               ; preds = %11, %2
  ret void
}

; Function Attrs: inlinehint nounwind uwtable
define internal zeroext i1 @slot_attisnull(ptr noundef %0, i32 noundef %1) #4 {
  %3 = alloca ptr, align 8
  %4 = alloca i32, align 4
  store ptr %0, ptr %3, align 8
  store i32 %1, ptr %4, align 4
  %5 = load i32, ptr %4, align 4
  %6 = load ptr, ptr %3, align 8
  %7 = getelementptr inbounds nuw %struct.TupleTableSlot, ptr %6, i32 0, i32 2
  %8 = load i16, ptr %7, align 2
  %9 = sext i16 %8 to i32
  %10 = icmp sgt i32 %5, %9
  br i1 %10, label %11, label %14

11:                                               ; preds = %2
  %12 = load ptr, ptr %3, align 8
  %13 = load i32, ptr %4, align 4
  call void @slot_getsomeattrs(ptr noundef %12, i32 noundef %13)
  br label %14

14:                                               ; preds = %11, %2
  %15 = load ptr, ptr %3, align 8
  %16 = getelementptr inbounds nuw %struct.TupleTableSlot, ptr %15, i32 0, i32 6
  %17 = load ptr, ptr %16, align 8
  %18 = load i32, ptr %4, align 4
  %19 = sub i32 %18, 1
  %20 = sext i32 %19 to i64
  %21 = getelementptr inbounds i8, ptr %17, i64 %20
  %22 = load i8, ptr %21, align 1, !range !4, !noundef !5
  %23 = trunc i8 %22 to i1
  ret i1 %23
}

; Function Attrs: inlinehint nounwind uwtable
define internal zeroext i1 @slot_is_current_xact_tuple(ptr noundef %0) #4 {
  %2 = alloca ptr, align 8
  store ptr %0, ptr %2, align 8
  %3 = load ptr, ptr %2, align 8
  %4 = getelementptr inbounds nuw %struct.TupleTableSlot, ptr %3, i32 0, i32 3
  %5 = load ptr, ptr %4, align 8
  %6 = getelementptr inbounds nuw %struct.TupleTableSlotOps, ptr %5, i32 0, i32 6
  %7 = load ptr, ptr %6, align 8
  %8 = load ptr, ptr %2, align 8
  %9 = call zeroext i1 %7(ptr noundef %8)
  ret i1 %9
}

; Function Attrs: nounwind uwtable
define internal i32 @ri_NullCheck(ptr noundef %0, ptr noundef %1, ptr noundef %2, i1 noundef zeroext %3) #0 {
  %5 = alloca i32, align 4
  %6 = alloca ptr, align 8
  %7 = alloca ptr, align 8
  %8 = alloca ptr, align 8
  %9 = alloca i8, align 1
  %10 = alloca ptr, align 8
  %11 = alloca i8, align 1
  %12 = alloca i8, align 1
  %13 = alloca i32, align 4
  %14 = alloca i32, align 4
  store ptr %0, ptr %6, align 8
  store ptr %1, ptr %7, align 8
  store ptr %2, ptr %8, align 8
  %15 = zext i1 %3 to i8
  store i8 %15, ptr %9, align 1
  call void @llvm.lifetime.start.p0(i64 8, ptr %10) #9
  call void @llvm.lifetime.start.p0(i64 1, ptr %11) #9
  store i8 1, ptr %11, align 1
  call void @llvm.lifetime.start.p0(i64 1, ptr %12) #9
  store i8 1, ptr %12, align 1
  %16 = load i8, ptr %9, align 1, !range !4, !noundef !5
  %17 = trunc i8 %16 to i1
  br i1 %17, label %18, label %22

18:                                               ; preds = %4
  %19 = load ptr, ptr %8, align 8
  %20 = getelementptr inbounds nuw %struct.RI_ConstraintInfo, ptr %19, i32 0, i32 15
  %21 = getelementptr inbounds [32 x i16], ptr %20, i64 0, i64 0
  store ptr %21, ptr %10, align 8
  br label %26

22:                                               ; preds = %4
  %23 = load ptr, ptr %8, align 8
  %24 = getelementptr inbounds nuw %struct.RI_ConstraintInfo, ptr %23, i32 0, i32 16
  %25 = getelementptr inbounds [32 x i16], ptr %24, i64 0, i64 0
  store ptr %25, ptr %10, align 8
  br label %26

26:                                               ; preds = %22, %18
  call void @llvm.lifetime.start.p0(i64 4, ptr %13) #9
  store i32 0, ptr %13, align 4
  br label %27

27:                                               ; preds = %46, %26
  %28 = load i32, ptr %13, align 4
  %29 = load ptr, ptr %8, align 8
  %30 = getelementptr inbounds nuw %struct.RI_ConstraintInfo, ptr %29, i32 0, i32 14
  %31 = load i32, ptr %30, align 8
  %32 = icmp slt i32 %28, %31
  br i1 %32, label %34, label %33

33:                                               ; preds = %27
  call void @llvm.lifetime.end.p0(i64 4, ptr %13) #9
  br label %49

34:                                               ; preds = %27
  %35 = load ptr, ptr %7, align 8
  %36 = load ptr, ptr %10, align 8
  %37 = load i32, ptr %13, align 4
  %38 = sext i32 %37 to i64
  %39 = getelementptr inbounds i16, ptr %36, i64 %38
  %40 = load i16, ptr %39, align 2
  %41 = sext i16 %40 to i32
  %42 = call zeroext i1 @slot_attisnull(ptr noundef %35, i32 noundef %41)
  br i1 %42, label %43, label %44

43:                                               ; preds = %34
  store i8 0, ptr %12, align 1
  br label %45

44:                                               ; preds = %34
  store i8 0, ptr %11, align 1
  br label %45

45:                                               ; preds = %44, %43
  br label %46

46:                                               ; preds = %45
  %47 = load i32, ptr %13, align 4
  %48 = add i32 %47, 1
  store i32 %48, ptr %13, align 4
  br label %27, !llvm.loop !15

49:                                               ; preds = %33
  %50 = load i8, ptr %11, align 1, !range !4, !noundef !5
  %51 = trunc i8 %50 to i1
  br i1 %51, label %52, label %53

52:                                               ; preds = %49
  store i32 0, ptr %5, align 4
  store i32 1, ptr %14, align 4
  br label %58

53:                                               ; preds = %49
  %54 = load i8, ptr %12, align 1, !range !4, !noundef !5
  %55 = trunc i8 %54 to i1
  br i1 %55, label %56, label %57

56:                                               ; preds = %53
  store i32 2, ptr %5, align 4
  store i32 1, ptr %14, align 4
  br label %58

57:                                               ; preds = %53
  store i32 1, ptr %5, align 4
  store i32 1, ptr %14, align 4
  br label %58

58:                                               ; preds = %57, %56, %52
  call void @llvm.lifetime.end.p0(i64 1, ptr %12) #9
  call void @llvm.lifetime.end.p0(i64 1, ptr %11) #9
  call void @llvm.lifetime.end.p0(i64 8, ptr %10) #9
  %59 = load i32, ptr %5, align 4
  ret i32 %59
}

; Function Attrs: nounwind uwtable
define dso_local zeroext i1 @RI_FKey_fk_upd_check_required(ptr noundef %0, ptr noundef %1, ptr noundef %2, ptr noundef %3) #0 {
  %5 = alloca i1, align 1
  %6 = alloca ptr, align 8
  %7 = alloca ptr, align 8
  %8 = alloca ptr, align 8
  %9 = alloca ptr, align 8
  %10 = alloca ptr, align 8
  %11 = alloca i32, align 4
  %12 = alloca i32, align 4
  store ptr %0, ptr %6, align 8
  store ptr %1, ptr %7, align 8
  store ptr %2, ptr %8, align 8
  store ptr %3, ptr %9, align 8
  call void @llvm.lifetime.start.p0(i64 8, ptr %10) #9
  call void @llvm.lifetime.start.p0(i64 4, ptr %11) #9
  %13 = load ptr, ptr %6, align 8
  %14 = load ptr, ptr %7, align 8
  %15 = call ptr @ri_FetchConstraintInfo(ptr noundef %13, ptr noundef %14, i1 noundef zeroext false)
  store ptr %15, ptr %10, align 8
  %16 = load ptr, ptr %7, align 8
  %17 = getelementptr inbounds nuw %struct.RelationData, ptr %16, i32 0, i32 14
  %18 = load ptr, ptr %17, align 8
  %19 = load ptr, ptr %9, align 8
  %20 = load ptr, ptr %10, align 8
  %21 = call i32 @ri_NullCheck(ptr noundef %18, ptr noundef %19, ptr noundef %20, i1 noundef zeroext false)
  store i32 %21, ptr %11, align 4
  %22 = load i32, ptr %11, align 4
  %23 = icmp eq i32 %22, 0
  br i1 %23, label %24, label %25

24:                                               ; preds = %4
  store i1 false, ptr %5, align 1
  store i32 1, ptr %12, align 4
  br label %49

25:                                               ; preds = %4
  %26 = load i32, ptr %11, align 4
  %27 = icmp eq i32 %26, 1
  br i1 %27, label %28, label %36

28:                                               ; preds = %25
  %29 = load ptr, ptr %10, align 8
  %30 = getelementptr inbounds nuw %struct.RI_ConstraintInfo, ptr %29, i32 0, i32 12
  %31 = load i8, ptr %30, align 4
  %32 = sext i8 %31 to i32
  switch i32 %32, label %35 [
    i32 115, label %33
    i32 112, label %35
    i32 102, label %34
  ]

33:                                               ; preds = %28
  store i1 false, ptr %5, align 1
  store i32 1, ptr %12, align 4
  br label %49

34:                                               ; preds = %28
  store i1 true, ptr %5, align 1
  store i32 1, ptr %12, align 4
  br label %49

35:                                               ; preds = %28, %28
  br label %36

36:                                               ; preds = %35, %25
  br label %37

37:                                               ; preds = %36
  %38 = load ptr, ptr %8, align 8
  %39 = call zeroext i1 @slot_is_current_xact_tuple(ptr noundef %38)
  br i1 %39, label %40, label %41

40:                                               ; preds = %37
  store i1 true, ptr %5, align 1
  store i32 1, ptr %12, align 4
  br label %49

41:                                               ; preds = %37
  %42 = load ptr, ptr %7, align 8
  %43 = load ptr, ptr %8, align 8
  %44 = load ptr, ptr %9, align 8
  %45 = load ptr, ptr %10, align 8
  %46 = call zeroext i1 @ri_KeysEqual(ptr noundef %42, ptr noundef %43, ptr noundef %44, ptr noundef %45, i1 noundef zeroext false)
  br i1 %46, label %47, label %48

47:                                               ; preds = %41
  store i1 false, ptr %5, align 1
  store i32 1, ptr %12, align 4
  br label %49

48:                                               ; preds = %41
  store i1 true, ptr %5, align 1
  store i32 1, ptr %12, align 4
  br label %49

49:                                               ; preds = %48, %47, %40, %34, %33, %24
  call void @llvm.lifetime.end.p0(i64 4, ptr %11) #9
  call void @llvm.lifetime.end.p0(i64 8, ptr %10) #9
  %50 = load i1, ptr %5, align 1
  ret i1 %50
}